target datalayout = "e-m:e-p270:32:32-p271:32:32-p272:64:64-i64:64-i128:128-f80:128-n8:16:32:64-S128"
target triple = "x86_64-pc-linux-gnu"

%class.ParallelCompactData = type { ptr, ptr, i64, ptr, i64 }
%class.ReservedSpace = type <{ ptr, i64, i64, i64, i64, i8, [3 x i8], i32, i8, [7 x i8] }>
%class.ThreadCritical = type { i8 }

@.str = private unnamed_addr constant [22 x i8] c"Parallel Compact Data\00", align 1
@_ZN6OSInfo26_vm_allocation_granularityE = external global i64, align 8
@_ZN6OSInfo13_vm_page_sizeE = external global i64, align 8
@_ZN10MemTracker15_tracking_levelE = external global i32, align 4

; Function Attrs: mustprogress nounwind uwtable
define linkonce_odr hidden void @_ZN12CHeapObjBasedlEPv(ptr noundef %0) #1 comdat align 2 {
  %2 = alloca ptr, align 8
  store ptr %0, ptr %2, align 8
  %3 = load ptr, ptr %2, align 8
  call void @_Z8FreeHeapPv(ptr noundef %3)
  ret void
}

; Function Attrs: mustprogress nounwind uwtable
define linkonce_odr hidden noundef zeroext i1 @_ZN10MemTracker7enabledEv() #1 comdat align 2 {
  %1 = load i32, ptr @_ZN10MemTracker15_tracking_levelE, align 4
  %2 = icmp sgt i32 %1, 1
  ret i1 %2
}

; Function Attrs: mustprogress nounwind uwtable
define linkonce_odr hidden void @_ZN10MemTracker16assert_post_initEv() #1 comdat align 2 {
  ret void
}

; Function Attrs: mustprogress nounwind uwtable
define linkonce_odr hidden noundef i64 @_ZN6OSInfo12vm_page_sizeEv() #1 comdat align 2 {
  %1 = load i64, ptr @_ZN6OSInfo13_vm_page_sizeE, align 8
  ret i64 %1
}

; Function Attrs: mustprogress nounwind uwtable
define linkonce_odr hidden noundef i64 @_Z10align_downImmTnNSt9enable_ifIXcvbsr3std11is_integralIT_EE5valueEiE4typeELi0EES1_S1_T0_(i64 noundef %0, i64 noundef %1) #1 comdat {
  %3 = alloca i64, align 8
  %4 = alloca i64, align 8
  %5 = alloca i64, align 8
  store i64 %0, ptr %3, align 8
  store i64 %1, ptr %4, align 8
  %6 = load i64, ptr %3, align 8
  %7 = load i64, ptr %4, align 8
  %8 = call noundef i64 @_ZL14alignment_maskImTnNSt9enable_ifIXcvbsr3std11is_integralIT_EE5valueEiE4typeELi0EES1_S1_(i64 noundef %7)
  %9 = xor i64 %8, -1
  %10 = and i64 %6, %9
  store i64 %10, ptr %5, align 8
  %11 = load i64, ptr %5, align 8
  ret i64 %11
}

; Function Attrs: mustprogress nounwind uwtable
define linkonce_odr hidden noundef i64 @_Z12checked_castImmET_T0_(i64 noundef %0) #1 comdat {
  %2 = alloca i64, align 8
  %3 = alloca i64, align 8
  store i64 %0, ptr %2, align 8
  %4 = load i64, ptr %2, align 8
  store i64 %4, ptr %3, align 8
  %5 = load i64, ptr %3, align 8
  ret i64 %5
}

; Function Attrs: mustprogress nounwind uwtable
define internal noundef i64 @_ZL14alignment_maskImTnNSt9enable_ifIXcvbsr3std11is_integralIT_EE5valueEiE4typeELi0EES1_S1_(i64 noundef %0) #1 {
  %2 = alloca i64, align 8
  store i64 %0, ptr %2, align 8
  %3 = load i64, ptr %2, align 8
  %4 = sub i64 %3, 1
  ret i64 %4
}

; Function Attrs: mustprogress nounwind uwtable
define linkonce_odr hidden noundef i64 @_ZN6OSInfo25vm_allocation_granularityEv() #1 comdat align 2 {
  %1 = load i64, ptr @_ZN6OSInfo26_vm_allocation_granularityE, align 8
  ret i64 %1
}

; Function Attrs: mustprogress nounwind uwtable
define linkonce_odr hidden void @_ZN8CHeapObjIL8MEMFLAGS5EEdlEPv(ptr noundef %0) #1 comdat align 2 {
  %2 = alloca ptr, align 8
  store ptr %0, ptr %2, align 8
  %3 = load ptr, ptr %2, align 8
  call void @_ZN12CHeapObjBasedlEPv(ptr noundef %3) #6
  ret void
}

; Function Attrs: mustprogress nounwind uwtable
define linkonce_odr hidden void @_ZN10MemTracker26record_virtual_memory_typeEPv8MEMFLAGS(ptr noundef %0, i8 noundef zeroext %1) #1 comdat align 2 {
  %3 = alloca ptr, align 8
  %4 = alloca i8, align 1
  %5 = alloca %class.ThreadCritical, align 1
  store ptr %0, ptr %3, align 8
  store i8 %1, ptr %4, align 1
  call void @_ZN10MemTracker16assert_post_initEv()
  %6 = call noundef zeroext i1 @_ZN10MemTracker7enabledEv()
  br i1 %6, label %8, label %7

7:                                                ; preds = %2
  br label %14

8:                                                ; preds = %2
  %9 = load ptr, ptr %3, align 8
  %10 = icmp ne ptr %9, null
  br i1 %10, label %11, label %14

11:                                               ; preds = %8
  call void @_ZN14ThreadCriticalC1Ev(ptr noundef nonnull align 1 dereferenceable(1) %5)
  %12 = load ptr, ptr %3, align 8
  %13 = load i8, ptr %4, align 1
  call void @_ZN20VirtualMemoryTracker24set_reserved_region_typeEPh8MEMFLAGS(ptr noundef %12, i8 noundef zeroext %13)
  call void @_ZN14ThreadCriticalD1Ev(ptr noundef nonnull align 1 dereferenceable(1) %5) #6
  br label %14

14:                                               ; preds = %11, %8, %7
  ret void
}

; Function Attrs: mustprogress nounwind uwtable
define linkonce_odr hidden noundef i64 @_ZNK13ReservedSpace4sizeEv(ptr noundef nonnull align 8 dereferenceable(49) %0) #1 comdat align 2 {
  %2 = alloca ptr, align 8
  store ptr %0, ptr %2, align 8
  %3 = load ptr, ptr %2, align 8
  %4 = getelementptr inbounds %class.ReservedSpace, ptr %3, i32 0, i32 1
  %5 = load i64, ptr %4, align 8
  ret i64 %5
}

; Function Attrs: mustprogress nounwind uwtable
define linkonce_odr hidden noundef ptr @_ZNK13ReservedSpace4baseEv(ptr noundef nonnull align 8 dereferenceable(49) %0) #1 comdat align 2 {
  %2 = alloca ptr, align 8
  store ptr %0, ptr %2, align 8
  %3 = load ptr, ptr %2, align 8
  %4 = getelementptr inbounds %class.ReservedSpace, ptr %3, i32 0, i32 0
  %5 = load ptr, ptr %4, align 8
  ret ptr %5
}

; Function Attrs: mustprogress nounwind uwtable
define linkonce_odr hidden noundef i64 @_ZN2os12vm_page_sizeEv() #1 comdat align 2 {
  %1 = call noundef i64 @_ZN6OSInfo12vm_page_sizeEv()
  ret i64 %1
}

; Function Attrs: mustprogress nounwind uwtable
define linkonce_odr hidden noundef i64 @_Z8align_upImmTnNSt9enable_ifIXcvbsr3std11is_integralIT_EE5valueEiE4typeELi0EES1_S1_T0_(i64 noundef %0, i64 noundef %1) #1 comdat {
  %3 = alloca i64, align 8
  %4 = alloca i64, align 8
  %5 = alloca i64, align 8
  store i64 %0, ptr %3, align 8
  store i64 %1, ptr %4, align 8
  %6 = load i64, ptr %3, align 8
  %7 = load i64, ptr %4, align 8
  %8 = call noundef i64 @_ZL14alignment_maskImTnNSt9enable_ifIXcvbsr3std11is_integralIT_EE5valueEiE4typeELi0EES1_S1_(i64 noundef %7)
  %9 = add i64 %6, %8
  %10 = call noundef i64 @_Z12checked_castImmET_T0_(i64 noundef %9)
  store i64 %10, ptr %5, align 8
  %11 = load i64, ptr %5, align 8
  %12 = load i64, ptr %4, align 8
  %13 = call noundef i64 @_Z10align_downImmTnNSt9enable_ifIXcvbsr3std11is_integralIT_EE5valueEiE4typeELi0EES1_S1_T0_(i64 noundef %11, i64 noundef %12)
  ret i64 %13
}

; Function Attrs: mustprogress nounwind uwtable
define linkonce_odr hidden noundef i64 @_Z4MAX2ImET_S0_S0_(i64 noundef %0, i64 noundef %1) #1 comdat {
  %3 = alloca i64, align 8
  %4 = alloca i64, align 8
  store i64 %0, ptr %3, align 8
  store i64 %1, ptr %4, align 8
  %5 = load i64, ptr %3, align 8
  %6 = load i64, ptr %4, align 8
  %7 = icmp ugt i64 %5, %6
  br i1 %7, label %8, label %10

8:                                                ; preds = %2
  %9 = load i64, ptr %3, align 8
  br label %12

10:                                               ; preds = %2
  %11 = load i64, ptr %4, align 8
  br label %12

12:                                               ; preds = %10, %8
  %13 = phi i64 [ %9, %8 ], [ %11, %10 ]
  ret i64 %13
}

; Function Attrs: mustprogress nounwind uwtable
define linkonce_odr hidden noundef i64 @_ZN2os25vm_allocation_granularityEv() #1 comdat align 2 {
  %1 = call noundef i64 @_ZN6OSInfo25vm_allocation_granularityEv()
  ret i64 %1
}

; Function Attrs: mustprogress nounwind uwtable
define hidden noundef ptr @_ZN19ParallelCompactData13create_vspaceEmm(ptr noundef nonnull align 8 dereferenceable(40) %0, i64 noundef %1, i64 noundef %2) #1 align 2 {
  %4 = alloca i64, align 8
  %5 = alloca i8, align 1
  %6 = alloca i64, align 8
  %7 = alloca ptr, align 8
  %8 = alloca ptr, align 8
  %9 = alloca i64, align 8
  %10 = alloca i64, align 8
  %11 = alloca i64, align 8
  %12 = alloca i64, align 8
  %13 = alloca i64, align 8
  %14 = alloca i64, align 8
  %15 = alloca %class.ReservedSpace, align 8
  %16 = alloca ptr, align 8
  %17 = alloca %class.ReservedSpace, align 8
  store ptr %0, ptr %8, align 8
  store i64 %1, ptr %9, align 8
  store i64 %2, ptr %10, align 8
  %18 = load ptr, ptr %8, align 8
  %19 = load i64, ptr %9, align 8
  %20 = load i64, ptr %10, align 8
  %21 = mul i64 %19, %20
  store i64 %21, ptr %11, align 8
  %22 = load i64, ptr %11, align 8
  %23 = call noundef i64 @_ZN2os28page_size_for_region_alignedEmm(i64 noundef %22, i64 noundef 10)
  store i64 %23, ptr %12, align 8
  %24 = call noundef i64 @_ZN2os25vm_allocation_granularityEv()
  store i64 %24, ptr %13, align 8
  %25 = load i64, ptr %11, align 8
  %26 = load i64, ptr %12, align 8
  %27 = load i64, ptr %13, align 8
  %28 = call noundef i64 @_Z4MAX2ImET_S0_S0_(i64 noundef %26, i64 noundef %27)
  %29 = call noundef i64 @_Z8align_upImmTnNSt9enable_ifIXcvbsr3std11is_integralIT_EE5valueEiE4typeELi0EES1_S1_T0_(i64 noundef %25, i64 noundef %28)
  %30 = getelementptr inbounds %class.ParallelCompactData, ptr %18, i32 0, i32 2
  store i64 %29, ptr %30, align 8
  %31 = load i64, ptr %12, align 8
  %32 = call noundef i64 @_ZN2os12vm_page_sizeEv()
  %33 = icmp eq i64 %31, %32
  br i1 %33, label %34, label %35

34:                                               ; preds = %3
  br label %39

35:                                               ; preds = %3
  %36 = load i64, ptr %12, align 8
  %37 = load i64, ptr %13, align 8
  %38 = call noundef i64 @_Z4MAX2ImET_S0_S0_(i64 noundef %36, i64 noundef %37)
  br label %39

39:                                               ; preds = %35, %34
  %40 = phi i64 [ 0, %34 ], [ %38, %35 ]
  store i64 %40, ptr %14, align 8
  %41 = getelementptr inbounds %class.ParallelCompactData, ptr %18, i32 0, i32 2
  %42 = load i64, ptr %41, align 8
  %43 = load i64, ptr %14, align 8
  %44 = load i64, ptr %12, align 8
  call void @_ZN13ReservedSpaceC1EmmmPc(ptr noundef nonnull align 8 dereferenceable(49) %15, i64 noundef %42, i64 noundef %43, i64 noundef %44, ptr noundef null)
  %45 = load i64, ptr %11, align 8
  %46 = load i64, ptr %11, align 8
  %47 = call noundef ptr @_ZNK13ReservedSpace4baseEv(ptr noundef nonnull align 8 dereferenceable(49) %15)
  %48 = call noundef i64 @_ZNK13ReservedSpace4sizeEv(ptr noundef nonnull align 8 dereferenceable(49) %15)
  %49 = load i64, ptr %12, align 8
  call void @_ZN2os16trace_page_sizesEPKcmmS1_mm(ptr noundef @.str, i64 noundef %45, i64 noundef %46, ptr noundef %47, i64 noundef %48, i64 noundef %49)
  %50 = call noundef ptr @_ZNK13ReservedSpace4baseEv(ptr noundef nonnull align 8 dereferenceable(49) %15)
  call void @_ZN10MemTracker26record_virtual_memory_typeEPv8MEMFLAGS(ptr noundef %50, i8 noundef zeroext 5)
  store i64 56, ptr %6, align 8
  %51 = load i64, ptr %6, align 8
  store i64 %51, ptr %4, align 8
  store i8 5, ptr %5, align 1
  %52 = load i64, ptr %4, align 8
  %53 = load i8, ptr %5, align 1
  %54 = call noundef ptr @_Z12AllocateHeapm8MEMFLAGSN17AllocFailStrategy13AllocFailEnumE(i64 noundef %52, i8 noundef zeroext %53, i32 noundef 0) #6
  call void @llvm.memcpy.p0.p0.i64(ptr align 8 %17, ptr align 8 %15, i64 56, i1 false)
  %55 = load i64, ptr %12, align 8
  call void @_ZN14PSVirtualSpaceC1E13ReservedSpacem(ptr noundef nonnull align 8 dereferenceable(49) %54, ptr noundef byval(%class.ReservedSpace) align 8 %17, i64 noundef %55)
  store ptr %54, ptr %16, align 8
  %56 = load ptr, ptr %16, align 8
  %57 = icmp ne ptr %56, null
  br i1 %57, label %58, label %73

58:                                               ; preds = %39
  %59 = load ptr, ptr %16, align 8
  %60 = getelementptr inbounds %class.ParallelCompactData, ptr %18, i32 0, i32 2
  %61 = load i64, ptr %60, align 8
  %62 = load ptr, ptr %59, align 8
  %63 = getelementptr inbounds ptr, ptr %62, i64 0
  %64 = load ptr, ptr %63, align 8
  %65 = call noundef zeroext i1 %64(ptr noundef nonnull align 8 dereferenceable(49) %59, i64 noundef %61)
  br i1 %65, label %66, label %68

66:                                               ; preds = %58
  %67 = load ptr, ptr %16, align 8
  store ptr %67, ptr %7, align 8
  br label %74

68:                                               ; preds = %58
  %69 = load ptr, ptr %16, align 8
  %70 = icmp eq ptr %69, null
  br i1 %70, label %72, label %71

71:                                               ; preds = %68
  call void @_ZN14PSVirtualSpaceD1Ev(ptr noundef nonnull align 8 dereferenceable(49) %69) #6
  call void @_ZN8CHeapObjIL8MEMFLAGS5EEdlEPv(ptr noundef %69) #6
  br label %72

72:                                               ; preds = %71, %68
  call void @_ZN13ReservedSpace7releaseEv(ptr noundef nonnull align 8 dereferenceable(49) %15)
  br label %73

73:                                               ; preds = %72, %39
  store ptr null, ptr %7, align 8
  br label %74

74:                                               ; preds = %73, %66
  %75 = load ptr, ptr %7, align 8
  ret ptr %75
}