; Function Attrs: mustprogress nounwind uwtable
define hidden noundef ptr @_ZN19ParallelCompactData13create_vspaceEmm(ptr nocapture noundef nonnull align 8 dereferenceable(40) %0, i64 noundef %1, i64 noundef %2) local_unnamed_addr #0 align 2 {
  %4 = alloca %class.ThreadCritical, align 1
  %5 = alloca %class.ReservedSpace, align 8
  %6 = mul i64 %2, %1
  %7 = tail call noundef i64 @_ZN2os28page_size_for_region_alignedEmm(i64 noundef %6, i64 noundef 10) #25
  %8 = load i64, ptr @_ZN6OSInfo26_vm_allocation_granularityE, align 8
  %9 = tail call noundef i64 @llvm.umax.i64(i64 %7, i64 %8)
  %10 = add i64 %6, -1
  %11 = add i64 %10, %9
  %12 = sub i64 0, %9
  %13 = and i64 %11, %12
  %14 = getelementptr inbounds i8, ptr %0, i64 16
  store i64 %13, ptr %14, align 8
  %15 = load i64, ptr @_ZN6OSInfo13_vm_page_sizeE, align 8
  %16 = icmp eq i64 %7, %15
  %spec.select = select i1 %16, i64 0, i64 %9
  call void @_ZN13ReservedSpaceC1EmmmPc(ptr noundef nonnull align 8 dereferenceable(49) %5, i64 noundef %13, i64 noundef %spec.select, i64 noundef %7, ptr noundef null) #25
  %17 = load ptr, ptr %5, align 8
  %18 = getelementptr inbounds i8, ptr %5, i64 8
  %19 = load i64, ptr %18, align 8
  call void @_ZN2os16trace_page_sizesEPKcmmS1_mm(ptr noundef nonnull @.str, i64 noundef %6, i64 noundef %6, ptr noundef %17, i64 noundef %19, i64 noundef %7) #25
  %20 = load ptr, ptr %5, align 8
  call void @llvm.lifetime.start.p0(i64 1, ptr nonnull %4)
  %21 = load i32, ptr @_ZN10MemTracker15_tracking_levelE, align 4
  %22 = icmp sgt i32 %21, 1
  %23 = icmp ne ptr %20, null
  %or.cond.i = and i1 %23, %22
  br i1 %or.cond.i, label %24, label %_ZN10MemTracker26record_virtual_memory_typeEPv8MEMFLAGS.exit

24:                                               ; preds = %3
  call void @_ZN14ThreadCriticalC1Ev(ptr noundef nonnull align 1 dereferenceable(1) %4) #25
  call void @_ZN20VirtualMemoryTracker24set_reserved_region_typeEPh8MEMFLAGS(ptr noundef nonnull %20, i8 noundef zeroext 5) #25
  call void @_ZN14ThreadCriticalD1Ev(ptr noundef nonnull align 1 dereferenceable(1) %4) #25
  br label %_ZN10MemTracker26record_virtual_memory_typeEPv8MEMFLAGS.exit

_ZN10MemTracker26record_virtual_memory_typeEPv8MEMFLAGS.exit: ; preds = %3, %24
  call void @llvm.lifetime.end.p0(i64 1, ptr nonnull %4)
  %25 = call noundef ptr @_Z12AllocateHeapm8MEMFLAGSN17AllocFailStrategy13AllocFailEnumE(i64 noundef 56, i8 noundef zeroext 5, i32 noundef 0) #25
  call void @_ZN14PSVirtualSpaceC1E13ReservedSpacem(ptr noundef nonnull align 8 dereferenceable(49) %25, ptr noundef nonnull byval(%class.ReservedSpace) align 8 %5, i64 noundef %7) #25
  %26 = load i64, ptr %14, align 8
  %27 = load ptr, ptr %25, align 8
  %28 = load ptr, ptr %27, align 8
  %29 = call noundef zeroext i1 %28(ptr noundef nonnull align 8 dereferenceable(49) %25, i64 noundef %26) #25
  br i1 %29, label %31, label %30

30:                                               ; preds = %_ZN10MemTracker26record_virtual_memory_typeEPv8MEMFLAGS.exit
  call void @_ZN14PSVirtualSpaceD1Ev(ptr noundef nonnull align 8 dereferenceable(49) %25) #25
  call void @_Z8FreeHeapPv(ptr noundef nonnull %25) #25
  call void @_ZN13ReservedSpace7releaseEv(ptr noundef nonnull align 8 dereferenceable(49) %5) #25
  br label %31

31:                                               ; preds = %_ZN10MemTracker26record_virtual_memory_typeEPv8MEMFLAGS.exit, %30
  %.0 = phi ptr [ null, %30 ], [ %25, %_ZN10MemTracker26record_virtual_memory_typeEPv8MEMFLAGS.exit ]
  ret ptr %.0
}